target datalayout = "e-m:e-p270:32:32-p271:32:32-p272:64:64-i64:64-i128:128-f80:128-n8:16:32:64-S128"
target triple = "x86_64-unknown-linux-gnu"

%"class.smt::eq_justification" = type { ptr }
%"class.smt::enode" = type { ptr, ptr, ptr, ptr, i32, i32, i32, i16, i32, i8, i8, %class.ptr_vector, %class.id_var_list, %"struct.smt::trans_justification", %class.approx_set, %class.approx_set, [0 x ptr] }
%class.ptr_vector = type { %class.vector }
%class.vector = type { ptr }
%class.id_var_list = type { i32, ptr }
%"struct.smt::trans_justification" = type { ptr, %"class.smt::eq_justification" }
%class.approx_set = type { %class.approx_set_tpl }
%class.approx_set_tpl = type { i64 }

; Function Attrs: mustprogress nounwind uwtable
define linkonce_odr hidden void @_ZdlPvR6region(ptr noundef %0, ptr noundef nonnull align 8 dereferenceable(40) %1) #4 comdat {
entry:
  %.addr = alloca ptr, align 8
  %.addr1 = alloca ptr, align 8
  store ptr %0, ptr %.addr, align 8
  store ptr %1, ptr %.addr1, align 8
  ret void
}

; Function Attrs: mustprogress nounwind uwtable
define linkonce_odr hidden void @_ZN11id_var_listILin1ELin1EE8set_nextEPS0_(ptr noundef nonnull align 8 dereferenceable(16) %this, ptr noundef %next) #4 comdat align 2 {
entry:
  %this.addr = alloca ptr, align 8
  %next.addr = alloca ptr, align 8
  store ptr %this, ptr %this.addr, align 8
  store ptr %next, ptr %next.addr, align 8
  %this1 = load ptr, ptr %this.addr, align 8
  %0 = load ptr, ptr %next.addr, align 8
  %m_next = getelementptr inbounds %class.id_var_list, ptr %this1, i32 0, i32 1
  store ptr %0, ptr %m_next, align 8
  ret void
}

; Function Attrs: mustprogress nounwind uwtable
define linkonce_odr hidden void @_ZN11id_var_listILin1ELin1EEC2EiiPS0_(ptr noundef nonnull align 8 dereferenceable(16) %this, i32 noundef %t, i32 noundef %v, ptr noundef %n) unnamed_addr #4 comdat align 2 {
entry:
  %this.addr = alloca ptr, align 8
  %t.addr = alloca i32, align 4
  %v.addr = alloca i32, align 4
  %n.addr = alloca ptr, align 8
  store ptr %this, ptr %this.addr, align 8
  store i32 %t, ptr %t.addr, align 4
  store i32 %v, ptr %v.addr, align 4
  store ptr %n, ptr %n.addr, align 8
  %this1 = load ptr, ptr %this.addr, align 8
  %0 = load i32, ptr %t.addr, align 4
  %bf.load = load i32, ptr %this1, align 8
  %bf.value = and i32 %0, 255
  %bf.clear = and i32 %bf.load, -256
  %bf.set = or i32 %bf.clear, %bf.value
  store i32 %bf.set, ptr %this1, align 8
  %1 = load i32, ptr %v.addr, align 4
  %bf.load2 = load i32, ptr %this1, align 8
  %bf.value3 = and i32 %1, 16777215
  %bf.shl = shl i32 %bf.value3, 8
  %bf.clear4 = and i32 %bf.load2, 255
  %bf.set5 = or i32 %bf.clear4, %bf.shl
  store i32 %bf.set5, ptr %this1, align 8
  %m_next = getelementptr inbounds %class.id_var_list, ptr %this1, i32 0, i32 1
  %2 = load ptr, ptr %n.addr, align 8
  store ptr %2, ptr %m_next, align 8
  ret void
}

; Function Attrs: mustprogress uwtable
define linkonce_odr hidden noundef ptr @_ZnwmR6region(i64 noundef %s, ptr noundef nonnull align 8 dereferenceable(40) %r) #5 comdat {
entry:
  %s.addr = alloca i64, align 8
  %r.addr = alloca ptr, align 8
  store i64 %s, ptr %s.addr, align 8
  store ptr %r, ptr %r.addr, align 8
  %0 = load ptr, ptr %r.addr, align 8
  %1 = load i64, ptr %s.addr, align 8
  %call = call noundef ptr @_ZN6region8allocateEm(ptr noundef nonnull align 8 dereferenceable(40) %0, i64 noundef %1)
  ret ptr %call
}

; Function Attrs: mustprogress nounwind uwtable
define linkonce_odr hidden noundef ptr @_ZNK11id_var_listILin1ELin1EE8get_nextEv(ptr noundef nonnull align 8 dereferenceable(16) %this) #4 comdat align 2 {
entry:
  %this.addr = alloca ptr, align 8
  store ptr %this, ptr %this.addr, align 8
  %this1 = load ptr, ptr %this.addr, align 8
  %m_next = getelementptr inbounds %class.id_var_list, ptr %this1, i32 0, i32 1
  %0 = load ptr, ptr %m_next, align 8
  ret ptr %0
}

; Function Attrs: mustprogress nounwind uwtable
define linkonce_odr hidden noundef i32 @_ZNK11id_var_listILin1ELin1EE7get_varEv(ptr noundef nonnull align 8 dereferenceable(16) %this) #4 comdat align 2 {
entry:
  %this.addr = alloca ptr, align 8
  store ptr %this, ptr %this.addr, align 8
  %this1 = load ptr, ptr %this.addr, align 8
  %bf.load = load i32, ptr %this1, align 8
  %bf.ashr = ashr i32 %bf.load, 8
  ret i32 %bf.ashr
}

; Function Attrs: mustprogress uwtable
define linkonce_odr hidden void @_ZN11id_var_listILin1ELin1EE7add_varEiiR6region(ptr noundef nonnull align 8 dereferenceable(16) %this, i32 noundef %v, i32 noundef %id, ptr noundef nonnull align 8 dereferenceable(40) %r) #5 comdat align 2 personality ptr @__gxx_personality_v0 {
entry:
  %this.addr = alloca ptr, align 8
  %v.addr = alloca i32, align 4
  %id.addr = alloca i32, align 4
  %r.addr = alloca ptr, align 8
  %l = alloca ptr, align 8
  %new_cell = alloca ptr, align 8
  %exn.slot = alloca ptr, align 8
  %ehselector.slot = alloca i32, align 4
  store ptr %this, ptr %this.addr, align 8
  store i32 %v, ptr %v.addr, align 4
  store i32 %id, ptr %id.addr, align 4
  store ptr %r, ptr %r.addr, align 8
  %this1 = load ptr, ptr %this.addr, align 8
  %call = call noundef i32 @_ZNK11id_var_listILin1ELin1EE7get_varEv(ptr noundef nonnull align 8 dereferenceable(16) %this1)
  %cmp = icmp eq i32 %call, -1
  br i1 %cmp, label %if.then, label %if.else

if.then:                                          ; preds = %entry
  %0 = load i32, ptr %v.addr, align 4
  %bf.load = load i32, ptr %this1, align 8
  %bf.value = and i32 %0, 16777215
  %bf.shl = shl i32 %bf.value, 8
  %bf.clear = and i32 %bf.load, 255
  %bf.set = or i32 %bf.clear, %bf.shl
  store i32 %bf.set, ptr %this1, align 8
  %1 = load i32, ptr %id.addr, align 4
  %bf.load2 = load i32, ptr %this1, align 8
  %bf.value3 = and i32 %1, 255
  %bf.clear4 = and i32 %bf.load2, -256
  %bf.set5 = or i32 %bf.clear4, %bf.value3
  store i32 %bf.set5, ptr %this1, align 8
  %m_next = getelementptr inbounds %class.id_var_list, ptr %this1, i32 0, i32 1
  store ptr null, ptr %m_next, align 8
  br label %if.end

if.else:                                          ; preds = %entry
  store ptr %this1, ptr %l, align 8
  br label %while.cond

while.cond:                                       ; preds = %while.body, %if.else
  %2 = load ptr, ptr %l, align 8
  %call6 = call noundef ptr @_ZNK11id_var_listILin1ELin1EE8get_nextEv(ptr noundef nonnull align 8 dereferenceable(16) %2)
  %tobool = icmp ne ptr %call6, null
  br i1 %tobool, label %while.body, label %while.end

while.body:                                       ; preds = %while.cond
  %3 = load ptr, ptr %l, align 8
  %call7 = call noundef ptr @_ZNK11id_var_listILin1ELin1EE8get_nextEv(ptr noundef nonnull align 8 dereferenceable(16) %3)
  store ptr %call7, ptr %l, align 8
  br label %while.cond, !llvm.loop !9

while.end:                                        ; preds = %while.cond
  %4 = load ptr, ptr %r.addr, align 8
  %call8 = call noundef ptr @_ZnwmR6region(i64 noundef 16, ptr noundef nonnull align 8 dereferenceable(40) %4)
  %5 = load i32, ptr %id.addr, align 4
  %6 = load i32, ptr %v.addr, align 4
  invoke void @_ZN11id_var_listILin1ELin1EEC2EiiPS0_(ptr noundef nonnull align 8 dereferenceable(16) %call8, i32 noundef %5, i32 noundef %6, ptr noundef null)
          to label %invoke.cont unwind label %lpad

invoke.cont:                                      ; preds = %while.end
  store ptr %call8, ptr %new_cell, align 8
  %7 = load ptr, ptr %l, align 8
  %8 = load ptr, ptr %new_cell, align 8
  call void @_ZN11id_var_listILin1ELin1EE8set_nextEPS0_(ptr noundef nonnull align 8 dereferenceable(16) %7, ptr noundef %8)
  br label %if.end

lpad:                                             ; preds = %while.end
  %9 = landingpad { ptr, i32 }
          cleanup
  %10 = extractvalue { ptr, i32 } %9, 0
  store ptr %10, ptr %exn.slot, align 8
  %11 = extractvalue { ptr, i32 } %9, 1
  store i32 %11, ptr %ehselector.slot, align 4
  call void @_ZdlPvR6region(ptr noundef %call8, ptr noundef nonnull align 8 dereferenceable(40) %4) #3
  br label %eh.resume

if.end:                                           ; preds = %invoke.cont, %if.then
  ret void

eh.resume:                                        ; preds = %lpad
  %exn = load ptr, ptr %exn.slot, align 8
  %sel = load i32, ptr %ehselector.slot, align 4
  %lpad.val = insertvalue { ptr, i32 } poison, ptr %exn, 0
  %lpad.val9 = insertvalue { ptr, i32 } %lpad.val, i32 %sel, 1
  resume { ptr, i32 } %lpad.val9
}

; Function Attrs: mustprogress uwtable
define hidden void @_ZN3smt5enode10add_th_varEiiR6region(ptr noundef nonnull align 8 dereferenceable(112) %this, i32 noundef %v, i32 noundef %id, ptr noundef nonnull align 8 dereferenceable(40) %r) #5 align 2 {
entry:
  %this.addr = alloca ptr, align 8
  %v.addr = alloca i32, align 4
  %id.addr = alloca i32, align 4
  %r.addr = alloca ptr, align 8
  store ptr %this, ptr %this.addr, align 8
  store i32 %v, ptr %v.addr, align 4
  store i32 %id, ptr %id.addr, align 4
  store ptr %r, ptr %r.addr, align 8
  %this1 = load ptr, ptr %this.addr, align 8
  %m_th_var_list = getelementptr inbounds %"class.smt::enode", ptr %this1, i32 0, i32 12
  %0 = load i32, ptr %v.addr, align 4
  %1 = load i32, ptr %id.addr, align 4
  %2 = load ptr, ptr %r.addr, align 8
  call void @_ZN11id_var_listILin1ELin1EE7add_varEiiR6region(ptr noundef nonnull align 8 dereferenceable(16) %m_th_var_list, i32 noundef %0, i32 noundef %1, ptr noundef nonnull align 8 dereferenceable(40) %2)
  ret void
}