; Function Attrs: mustprogress uwtable
define hidden void @_ZN3smt5enode10add_th_varEiiR6region(ptr nocapture noundef nonnull align 8 dereferenceable(112) %this, i32 noundef %v, i32 noundef %id, ptr noundef nonnull align 8 dereferenceable(40) %r) local_unnamed_addr #3 align 2 personality ptr @__gxx_personality_v0 {
entry:
  %m_th_var_list = getelementptr inbounds i8, ptr %this, i64 64
  %bf.load.i.i = load i32, ptr %m_th_var_list, align 8
  %cmp.i = icmp ugt i32 %bf.load.i.i, -257
  br i1 %cmp.i, label %if.then.i, label %while.cond.i

if.then.i:                                        ; preds = %entry
  %bf.value.i = shl i32 %v, 8
  %bf.value3.i = and i32 %id, 255
  %bf.set5.i = or disjoint i32 %bf.value3.i, %bf.value.i
  store i32 %bf.set5.i, ptr %m_th_var_list, align 8
  %m_next.i = getelementptr inbounds i8, ptr %this, i64 72
  store ptr null, ptr %m_next.i, align 8
  br label %_ZN11id_var_listILin1ELin1EE7add_varEiiR6region.exit

while.cond.i:                                     ; preds = %entry, %while.cond.i
  %l.0.i = phi ptr [ %0, %while.cond.i ], [ %m_th_var_list, %entry ]
  %m_next.i.i = getelementptr inbounds i8, ptr %l.0.i, i64 8
  %0 = load ptr, ptr %m_next.i.i, align 8
  %tobool.not.i = icmp eq ptr %0, null
  br i1 %tobool.not.i, label %while.end.i, label %while.cond.i, !llvm.loop !9

while.end.i:                                      ; preds = %while.cond.i
  %m_next.i.i.le = getelementptr inbounds i8, ptr %l.0.i, i64 8
  %call.i.i = tail call noundef ptr @_ZN6region8allocateEm(ptr noundef nonnull align 8 dereferenceable(40) %r, i64 noundef 16)
  %bf.value.i.i = and i32 %id, 255
  %bf.value3.i.i = shl i32 %v, 8
  %bf.set5.i.i = or disjoint i32 %bf.value.i.i, %bf.value3.i.i
  store i32 %bf.set5.i.i, ptr %call.i.i, align 8
  %m_next.i6.i = getelementptr inbounds i8, ptr %call.i.i, i64 8
  store ptr null, ptr %m_next.i6.i, align 8
  store ptr %call.i.i, ptr %m_next.i.i.le, align 8
  br label %_ZN11id_var_listILin1ELin1EE7add_varEiiR6region.exit

_ZN11id_var_listILin1ELin1EE7add_varEiiR6region.exit: ; preds = %if.then.i, %while.end.i
  ret void
}